target datalayout = "e-m:e-p270:32:32-p271:32:32-p272:64:64-i64:64-i128:128-f80:128-n8:16:32:64-S128"
target triple = "x86_64-pc-linux-gnu"

%struct.Abc_Ntk_t_ = type { i32, i32, ptr, ptr, ptr, ptr, ptr, ptr, ptr, ptr, ptr, ptr, ptr, [11 x i32], i32, i32, i32, i32, ptr, i32, ptr, ptr, i32, i32, i32, double, i32, %struct.Vec_Int_t_, ptr, ptr, ptr, ptr, ptr, float, i32, ptr, ptr, ptr, ptr, ptr, ptr, ptr, ptr, ptr, ptr, ptr, ptr, ptr, ptr, ptr, ptr, ptr, ptr, ptr, ptr, ptr, ptr }
%struct.Vec_Int_t_ = type { i32, i32, ptr }
%struct.Vec_Ptr_t_ = type { i32, i32, ptr }
%struct.Abc_Obj_t_ = type { ptr, ptr, i32, i32, %struct.Vec_Int_t_, %struct.Vec_Int_t_, %union.anon, %union.anon.0 }
%union.anon = type { ptr }
%union.anon.0 = type { ptr }

@stdout = external global ptr, align 8
@.str.23 = private unnamed_addr constant [3 x i8] c"ex\00", align 1
@.str.24 = private unnamed_addr constant [2 x i8] c"F\00", align 1
@.str.25 = private unnamed_addr constant [52 x i8] c"Abc_NtkCreateWithNode(): Network check has failed.\0A\00", align 1

; Function Attrs: inlinehint nounwind uwtable
define internal i32 @Vec_PtrSize(ptr noundef %0) #4 {
  %2 = alloca ptr, align 8
  store ptr %0, ptr %2, align 8, !tbaa !42
  %3 = load ptr, ptr %2, align 8, !tbaa !42
  %4 = getelementptr inbounds nuw %struct.Vec_Ptr_t_, ptr %3, i32 0, i32 1
  %5 = load i32, ptr %4, align 4, !tbaa !43
  ret i32 %5
}

; Function Attrs: inlinehint nounwind uwtable
define internal void @Vec_PtrGrow(ptr noundef %0, i32 noundef %1) #4 {
  %3 = alloca ptr, align 8
  %4 = alloca i32, align 4
  store ptr %0, ptr %3, align 8, !tbaa !42
  store i32 %1, ptr %4, align 4, !tbaa !3
  %5 = load ptr, ptr %3, align 8, !tbaa !42
  %6 = getelementptr inbounds nuw %struct.Vec_Ptr_t_, ptr %5, i32 0, i32 0
  %7 = load i32, ptr %6, align 8, !tbaa !45
  %8 = load i32, ptr %4, align 4, !tbaa !3
  %9 = icmp sge i32 %7, %8
  br i1 %9, label %10, label %11

10:                                               ; preds = %2
  br label %36

11:                                               ; preds = %2
  %12 = load ptr, ptr %3, align 8, !tbaa !42
  %13 = getelementptr inbounds nuw %struct.Vec_Ptr_t_, ptr %12, i32 0, i32 2
  %14 = load ptr, ptr %13, align 8, !tbaa !46
  %15 = icmp ne ptr %14, null
  br i1 %15, label %16, label %24

16:                                               ; preds = %11
  %17 = load ptr, ptr %3, align 8, !tbaa !42
  %18 = getelementptr inbounds nuw %struct.Vec_Ptr_t_, ptr %17, i32 0, i32 2
  %19 = load ptr, ptr %18, align 8, !tbaa !46
  %20 = load i32, ptr %4, align 4, !tbaa !3
  %21 = sext i32 %20 to i64
  %22 = mul i64 8, %21
  %23 = call ptr @realloc(ptr noundef %19, i64 noundef %22) #14
  br label %29

24:                                               ; preds = %11
  %25 = load i32, ptr %4, align 4, !tbaa !3
  %26 = sext i32 %25 to i64
  %27 = mul i64 8, %26
  %28 = call noalias ptr @malloc(i64 noundef %27) #12
  br label %29

29:                                               ; preds = %24, %16
  %30 = phi ptr [ %23, %16 ], [ %28, %24 ]
  %31 = load ptr, ptr %3, align 8, !tbaa !42
  %32 = getelementptr inbounds nuw %struct.Vec_Ptr_t_, ptr %31, i32 0, i32 2
  store ptr %30, ptr %32, align 8, !tbaa !46
  %33 = load i32, ptr %4, align 4, !tbaa !3
  %34 = load ptr, ptr %3, align 8, !tbaa !42
  %35 = getelementptr inbounds nuw %struct.Vec_Ptr_t_, ptr %34, i32 0, i32 0
  store i32 %33, ptr %35, align 8, !tbaa !45
  br label %36

36:                                               ; preds = %29, %10
  ret void
}

; Function Attrs: inlinehint nounwind uwtable
define internal ptr @Abc_NtkCreatePo(ptr noundef %0) #4 {
  %2 = alloca ptr, align 8
  store ptr %0, ptr %2, align 8, !tbaa !7
  %3 = load ptr, ptr %2, align 8, !tbaa !7
  %4 = call ptr @Abc_NtkCreateObj(ptr noundef %3, i32 noundef 3)
  ret ptr %4
}

; Function Attrs: inlinehint nounwind uwtable
define internal ptr @Abc_NtkPi(ptr noundef %0, i32 noundef %1) #4 {
  %3 = alloca ptr, align 8
  %4 = alloca i32, align 4
  store ptr %0, ptr %3, align 8, !tbaa !7
  store i32 %1, ptr %4, align 4, !tbaa !3
  %5 = load ptr, ptr %3, align 8, !tbaa !7
  %6 = getelementptr inbounds nuw %struct.Abc_Ntk_t_, ptr %5, i32 0, i32 6
  %7 = load ptr, ptr %6, align 8, !tbaa !29
  %8 = load i32, ptr %4, align 4, !tbaa !3
  %9 = call ptr @Vec_PtrEntry(ptr noundef %7, i32 noundef %8)
  ret ptr %9
}

; Function Attrs: inlinehint nounwind uwtable
define internal i32 @Abc_NtkPiNum(ptr noundef %0) #4 {
  %2 = alloca ptr, align 8
  store ptr %0, ptr %2, align 8, !tbaa !7
  %3 = load ptr, ptr %2, align 8, !tbaa !7
  %4 = getelementptr inbounds nuw %struct.Abc_Ntk_t_, ptr %3, i32 0, i32 6
  %5 = load ptr, ptr %4, align 8, !tbaa !29
  %6 = call i32 @Vec_PtrSize(ptr noundef %5)
  ret i32 %6
}

; Function Attrs: inlinehint nounwind uwtable
define internal ptr @Abc_NtkCreateNode(ptr noundef %0) #4 {
  %2 = alloca ptr, align 8
  store ptr %0, ptr %2, align 8, !tbaa !7
  %3 = load ptr, ptr %2, align 8, !tbaa !7
  %4 = call ptr @Abc_NtkCreateObj(ptr noundef %3, i32 noundef 7)
  ret ptr %4
}

; Function Attrs: inlinehint nounwind uwtable
define internal ptr @Vec_PtrEntry(ptr noundef %0, i32 noundef %1) #4 {
  %3 = alloca ptr, align 8
  %4 = alloca i32, align 4
  store ptr %0, ptr %3, align 8, !tbaa !42
  store i32 %1, ptr %4, align 4, !tbaa !3
  %5 = load ptr, ptr %3, align 8, !tbaa !42
  %6 = getelementptr inbounds nuw %struct.Vec_Ptr_t_, ptr %5, i32 0, i32 2
  %7 = load ptr, ptr %6, align 8, !tbaa !46
  %8 = load i32, ptr %4, align 4, !tbaa !3
  %9 = sext i32 %8 to i64
  %10 = getelementptr inbounds ptr, ptr %7, i64 %9
  %11 = load ptr, ptr %10, align 8, !tbaa !47
  ret ptr %11
}

; Function Attrs: inlinehint nounwind uwtable
define internal ptr @Abc_NtkCreatePi(ptr noundef %0) #4 {
  %2 = alloca ptr, align 8
  store ptr %0, ptr %2, align 8, !tbaa !7
  %3 = load ptr, ptr %2, align 8, !tbaa !7
  %4 = call ptr @Abc_NtkCreateObj(ptr noundef %3, i32 noundef 2)
  ret ptr %4
}

; Function Attrs: inlinehint nounwind uwtable
define internal void @Vec_PtrPush(ptr noundef %0, ptr noundef %1) #4 {
  %3 = alloca ptr, align 8
  %4 = alloca ptr, align 8
  store ptr %0, ptr %3, align 8, !tbaa !42
  store ptr %1, ptr %4, align 8, !tbaa !47
  %5 = load ptr, ptr %3, align 8, !tbaa !42
  %6 = getelementptr inbounds nuw %struct.Vec_Ptr_t_, ptr %5, i32 0, i32 1
  %7 = load i32, ptr %6, align 4, !tbaa !43
  %8 = load ptr, ptr %3, align 8, !tbaa !42
  %9 = getelementptr inbounds nuw %struct.Vec_Ptr_t_, ptr %8, i32 0, i32 0
  %10 = load i32, ptr %9, align 8, !tbaa !45
  %11 = icmp eq i32 %7, %10
  br i1 %11, label %12, label %26

12:                                               ; preds = %2
  %13 = load ptr, ptr %3, align 8, !tbaa !42
  %14 = getelementptr inbounds nuw %struct.Vec_Ptr_t_, ptr %13, i32 0, i32 0
  %15 = load i32, ptr %14, align 8, !tbaa !45
  %16 = icmp slt i32 %15, 16
  br i1 %16, label %17, label %19

17:                                               ; preds = %12
  %18 = load ptr, ptr %3, align 8, !tbaa !42
  call void @Vec_PtrGrow(ptr noundef %18, i32 noundef 16)
  br label %25

19:                                               ; preds = %12
  %20 = load ptr, ptr %3, align 8, !tbaa !42
  %21 = load ptr, ptr %3, align 8, !tbaa !42
  %22 = getelementptr inbounds nuw %struct.Vec_Ptr_t_, ptr %21, i32 0, i32 0
  %23 = load i32, ptr %22, align 8, !tbaa !45
  %24 = mul nsw i32 2, %23
  call void @Vec_PtrGrow(ptr noundef %20, i32 noundef %24)
  br label %25

25:                                               ; preds = %19, %17
  br label %26

26:                                               ; preds = %25, %2
  %27 = load ptr, ptr %4, align 8, !tbaa !47
  %28 = load ptr, ptr %3, align 8, !tbaa !42
  %29 = getelementptr inbounds nuw %struct.Vec_Ptr_t_, ptr %28, i32 0, i32 2
  %30 = load ptr, ptr %29, align 8, !tbaa !46
  %31 = load ptr, ptr %3, align 8, !tbaa !42
  %32 = getelementptr inbounds nuw %struct.Vec_Ptr_t_, ptr %31, i32 0, i32 1
  %33 = load i32, ptr %32, align 4, !tbaa !43
  %34 = add nsw i32 %33, 1
  store i32 %34, ptr %32, align 4, !tbaa !43
  %35 = sext i32 %33 to i64
  %36 = getelementptr inbounds ptr, ptr %30, i64 %35
  store ptr %27, ptr %36, align 8, !tbaa !47
  ret void
}

; Function Attrs: nounwind uwtable
define ptr @Abc_NtkCreateWithNode(ptr noundef %0) #0 {
  %2 = alloca ptr, align 8
  %3 = alloca ptr, align 8
  %4 = alloca ptr, align 8
  %5 = alloca ptr, align 8
  %6 = alloca ptr, align 8
  %7 = alloca ptr, align 8
  %8 = alloca i32, align 4
  %9 = alloca i32, align 4
  store ptr %0, ptr %2, align 8, !tbaa !86
  call void @llvm.lifetime.start.p0(i64 8, ptr %3) #11
  call void @llvm.lifetime.start.p0(i64 8, ptr %4) #11
  call void @llvm.lifetime.start.p0(i64 8, ptr %5) #11
  call void @llvm.lifetime.start.p0(i64 8, ptr %6) #11
  call void @llvm.lifetime.start.p0(i64 8, ptr %7) #11
  call void @llvm.lifetime.start.p0(i64 4, ptr %8) #11
  call void @llvm.lifetime.start.p0(i64 4, ptr %9) #11
  %10 = call ptr @Abc_NtkAlloc(i32 noundef 2, i32 noundef 1, i32 noundef 1)
  store ptr %10, ptr %3, align 8, !tbaa !7
  %11 = call ptr @Extra_UtilStrsav(ptr noundef @.str.23)
  %12 = load ptr, ptr %3, align 8, !tbaa !7
  %13 = getelementptr inbounds nuw %struct.Abc_Ntk_t_, ptr %12, i32 0, i32 2
  store ptr %11, ptr %13, align 8, !tbaa !50
  %14 = load ptr, ptr %3, align 8, !tbaa !7
  %15 = getelementptr inbounds nuw %struct.Abc_Ntk_t_, ptr %14, i32 0, i32 5
  %16 = load ptr, ptr %15, align 8, !tbaa !27
  call void @Vec_PtrPush(ptr noundef %16, ptr noundef null)
  %17 = load ptr, ptr %2, align 8, !tbaa !86
  %18 = call i32 @Abc_SopGetVarNum(ptr noundef %17)
  store i32 %18, ptr %9, align 4, !tbaa !3
  %19 = load i32, ptr %9, align 4, !tbaa !3
  %20 = call ptr @Abc_NodeGetFakeNames(i32 noundef %19)
  store ptr %20, ptr %7, align 8, !tbaa !42
  store i32 0, ptr %8, align 4, !tbaa !3
  br label %21

21:                                               ; preds = %32, %1
  %22 = load i32, ptr %8, align 4, !tbaa !3
  %23 = load i32, ptr %9, align 4, !tbaa !3
  %24 = icmp slt i32 %22, %23
  br i1 %24, label %25, label %35

25:                                               ; preds = %21
  %26 = load ptr, ptr %3, align 8, !tbaa !7
  %27 = call ptr @Abc_NtkCreatePi(ptr noundef %26)
  %28 = load ptr, ptr %7, align 8, !tbaa !42
  %29 = load i32, ptr %8, align 4, !tbaa !3
  %30 = call ptr @Vec_PtrEntry(ptr noundef %28, i32 noundef %29)
  %31 = call ptr @Abc_ObjAssignName(ptr noundef %27, ptr noundef %30, ptr noundef null)
  br label %32

32:                                               ; preds = %25
  %33 = load i32, ptr %8, align 4, !tbaa !3
  %34 = add nsw i32 %33, 1
  store i32 %34, ptr %8, align 4, !tbaa !3
  br label %21, !llvm.loop !183

35:                                               ; preds = %21
  %36 = load ptr, ptr %7, align 8, !tbaa !42
  call void @Abc_NodeFreeNames(ptr noundef %36)
  %37 = load ptr, ptr %3, align 8, !tbaa !7
  %38 = call ptr @Abc_NtkCreateNode(ptr noundef %37)
  store ptr %38, ptr %5, align 8, !tbaa !53
  store i32 0, ptr %8, align 4, !tbaa !3
  br label %39

39:                                               ; preds = %53, %35
  %40 = load i32, ptr %8, align 4, !tbaa !3
  %41 = load ptr, ptr %3, align 8, !tbaa !7
  %42 = call i32 @Abc_NtkPiNum(ptr noundef %41)
  %43 = icmp slt i32 %40, %42
  br i1 %43, label %44, label %48

44:                                               ; preds = %39
  %45 = load ptr, ptr %3, align 8, !tbaa !7
  %46 = load i32, ptr %8, align 4, !tbaa !3
  %47 = call ptr @Abc_NtkPi(ptr noundef %45, i32 noundef %46)
  store ptr %47, ptr %4, align 8, !tbaa !53
  br label %48

48:                                               ; preds = %44, %39
  %49 = phi i1 [ false, %39 ], [ true, %44 ]
  br i1 %49, label %50, label %56

50:                                               ; preds = %48
  %51 = load ptr, ptr %5, align 8, !tbaa !53
  %52 = load ptr, ptr %4, align 8, !tbaa !53
  call void @Abc_ObjAddFanin(ptr noundef %51, ptr noundef %52)
  br label %53

53:                                               ; preds = %50
  %54 = load i32, ptr %8, align 4, !tbaa !3
  %55 = add nsw i32 %54, 1
  store i32 %55, ptr %8, align 4, !tbaa !3
  br label %39, !llvm.loop !184

56:                                               ; preds = %48
  %57 = load ptr, ptr %3, align 8, !tbaa !7
  %58 = getelementptr inbounds nuw %struct.Abc_Ntk_t_, ptr %57, i32 0, i32 30
  %59 = load ptr, ptr %58, align 8, !tbaa !38
  %60 = load ptr, ptr %2, align 8, !tbaa !86
  %61 = call ptr @Abc_SopRegister(ptr noundef %59, ptr noundef %60)
  %62 = load ptr, ptr %5, align 8, !tbaa !53
  %63 = getelementptr inbounds nuw %struct.Abc_Obj_t_, ptr %62, i32 0, i32 6
  store ptr %61, ptr %63, align 8, !tbaa !52
  %64 = load ptr, ptr %3, align 8, !tbaa !7
  %65 = call ptr @Abc_NtkCreatePo(ptr noundef %64)
  store ptr %65, ptr %6, align 8, !tbaa !53
  %66 = load ptr, ptr %6, align 8, !tbaa !53
  %67 = load ptr, ptr %5, align 8, !tbaa !53
  call void @Abc_ObjAddFanin(ptr noundef %66, ptr noundef %67)
  %68 = load ptr, ptr %6, align 8, !tbaa !53
  %69 = call ptr @Abc_ObjAssignName(ptr noundef %68, ptr noundef @.str.24, ptr noundef null)
  %70 = load ptr, ptr %3, align 8, !tbaa !7
  %71 = call i32 @Abc_NtkCheck(ptr noundef %70)
  %72 = icmp ne i32 %71, 0
  br i1 %72, label %76, label %73

73:                                               ; preds = %56
  %74 = load ptr, ptr @stdout, align 8, !tbaa !105
  %75 = call i32 (ptr, ptr, ...) @fprintf(ptr noundef %74, ptr noundef @.str.25) #11
  br label %76

76:                                               ; preds = %73, %56
  %77 = load ptr, ptr %3, align 8, !tbaa !7
  call void @llvm.lifetime.end.p0(i64 4, ptr %9) #11
  call void @llvm.lifetime.end.p0(i64 4, ptr %8) #11
  call void @llvm.lifetime.end.p0(i64 8, ptr %7) #11
  call void @llvm.lifetime.end.p0(i64 8, ptr %6) #11
  call void @llvm.lifetime.end.p0(i64 8, ptr %5) #11
  call void @llvm.lifetime.end.p0(i64 8, ptr %4) #11
  call void @llvm.lifetime.end.p0(i64 8, ptr %3) #11
  ret ptr %77
}