; Function Attrs: nounwind uwtable
define noundef ptr @Abc_NtkCreateWithNode(ptr noundef %0) local_unnamed_addr #0 {
  %2 = tail call ptr @Abc_NtkAlloc(i32 noundef 2, i32 noundef 1, i32 noundef 1)
  %3 = tail call ptr @Extra_UtilStrsav(ptr noundef nonnull @.str.23) #20
  %4 = getelementptr inbounds nuw i8, ptr %2, i64 8
  store ptr %3, ptr %4, align 8, !tbaa !47
  %5 = getelementptr inbounds nuw i8, ptr %2, i64 32
  %6 = load ptr, ptr %5, align 8, !tbaa !29
  %7 = getelementptr inbounds nuw i8, ptr %6, i64 4
  %8 = load i32, ptr %7, align 4, !tbaa !25
  %9 = load i32, ptr %6, align 8, !tbaa !27
  %10 = icmp eq i32 %8, %9
  br i1 %10, label %11, label %.Vec_PtrGrow.exit11_crit_edge.i

.Vec_PtrGrow.exit11_crit_edge.i:                  ; preds = %1
  %.phi.trans.insert.i = getelementptr inbounds nuw i8, ptr %6, i64 8
  %.pre.i = load ptr, ptr %.phi.trans.insert.i, align 8, !tbaa !28
  br label %Vec_PtrPush.exit

11:                                               ; preds = %1
  %12 = icmp slt i32 %8, 16
  br i1 %12, label %13, label %21

13:                                               ; preds = %11
  %14 = getelementptr inbounds nuw i8, ptr %6, i64 8
  %15 = load ptr, ptr %14, align 8, !tbaa !28
  %.not9.i.i = icmp eq ptr %15, null
  br i1 %.not9.i.i, label %18, label %16

16:                                               ; preds = %13
  %17 = tail call dereferenceable_or_null(128) ptr @realloc(ptr noundef nonnull %15, i64 noundef 128) #21
  br label %Vec_PtrGrow.exit.i

18:                                               ; preds = %13
  %19 = tail call noalias dereferenceable_or_null(128) ptr @malloc(i64 noundef 128) #19
  br label %Vec_PtrGrow.exit.i

Vec_PtrGrow.exit.i:                               ; preds = %18, %16
  %20 = phi ptr [ %17, %16 ], [ %19, %18 ]
  store ptr %20, ptr %14, align 8, !tbaa !28
  store i32 16, ptr %6, align 8, !tbaa !27
  br label %Vec_PtrPush.exit

21:                                               ; preds = %11
  %22 = shl nuw nsw i32 %8, 1
  %23 = getelementptr inbounds nuw i8, ptr %6, i64 8
  %24 = load ptr, ptr %23, align 8, !tbaa !28
  %.not9.i10.i = icmp eq ptr %24, null
  %25 = zext nneg i32 %22 to i64
  %26 = shl nuw nsw i64 %25, 3
  br i1 %.not9.i10.i, label %29, label %27

27:                                               ; preds = %21
  %28 = tail call ptr @realloc(ptr noundef nonnull %24, i64 noundef %26) #21
  br label %31

29:                                               ; preds = %21
  %30 = tail call noalias ptr @malloc(i64 noundef %26) #19
  br label %31

31:                                               ; preds = %29, %27
  %32 = phi ptr [ %28, %27 ], [ %30, %29 ]
  store ptr %32, ptr %23, align 8, !tbaa !28
  store i32 %22, ptr %6, align 8, !tbaa !27
  br label %Vec_PtrPush.exit

Vec_PtrPush.exit:                                 ; preds = %.Vec_PtrGrow.exit11_crit_edge.i, %Vec_PtrGrow.exit.i, %31
  %33 = phi ptr [ %.pre.i, %.Vec_PtrGrow.exit11_crit_edge.i ], [ %32, %31 ], [ %20, %Vec_PtrGrow.exit.i ]
  %34 = load i32, ptr %7, align 4, !tbaa !25
  %35 = add nsw i32 %34, 1
  store i32 %35, ptr %7, align 4, !tbaa !25
  %36 = sext i32 %34 to i64
  %37 = getelementptr inbounds ptr, ptr %33, i64 %36
  store ptr null, ptr %37, align 8, !tbaa !40
  %38 = tail call i32 @Abc_SopGetVarNum(ptr noundef %0) #20
  %39 = tail call ptr @Abc_NodeGetFakeNames(i32 noundef %38) #20
  %40 = icmp sgt i32 %38, 0
  br i1 %40, label %.lr.ph, label %._crit_edge

.lr.ph:                                           ; preds = %Vec_PtrPush.exit
  %41 = getelementptr i8, ptr %39, i64 8
  %wide.trip.count = zext nneg i32 %38 to i64
  br label %42

42:                                               ; preds = %.lr.ph, %42
  %indvars.iv = phi i64 [ 0, %.lr.ph ], [ %indvars.iv.next, %42 ]
  %43 = tail call ptr @Abc_NtkCreateObj(ptr noundef %2, i32 noundef 2) #20
  %.val27 = load ptr, ptr %41, align 8, !tbaa !28
  %44 = getelementptr inbounds nuw ptr, ptr %.val27, i64 %indvars.iv
  %45 = load ptr, ptr %44, align 8, !tbaa !40
  %46 = tail call ptr @Abc_ObjAssignName(ptr noundef %43, ptr noundef %45, ptr noundef null) #20
  %indvars.iv.next = add nuw nsw i64 %indvars.iv, 1
  %exitcond.not = icmp eq i64 %indvars.iv.next, %wide.trip.count
  br i1 %exitcond.not, label %._crit_edge, label %42, !llvm.loop !187

._crit_edge:                                      ; preds = %42, %Vec_PtrPush.exit
  tail call void @Abc_NodeFreeNames(ptr noundef %39) #20
  %47 = tail call ptr @Abc_NtkCreateObj(ptr noundef %2, i32 noundef 7) #20
  %48 = getelementptr i8, ptr %2, i64 40
  %.val30 = load ptr, ptr %48, align 8, !tbaa !31
  %49 = getelementptr i8, ptr %.val30, i64 4
  %.val.val31 = load i32, ptr %49, align 4, !tbaa !25
  %50 = icmp sgt i32 %.val.val31, 0
  br i1 %50, label %.lr.ph35, label %.critedge

.lr.ph35:                                         ; preds = %._crit_edge, %.lr.ph35
  %indvars.iv37 = phi i64 [ %indvars.iv.next38, %.lr.ph35 ], [ 0, %._crit_edge ]
  %.val33 = phi ptr [ %.val, %.lr.ph35 ], [ %.val30, %._crit_edge ]
  %51 = getelementptr i8, ptr %.val33, i64 8
  %.val28.val = load ptr, ptr %51, align 8, !tbaa !28
  %52 = getelementptr inbounds nuw ptr, ptr %.val28.val, i64 %indvars.iv37
  %53 = load ptr, ptr %52, align 8, !tbaa !40
  tail call void @Abc_ObjAddFanin(ptr noundef %47, ptr noundef %53) #20
  %indvars.iv.next38 = add nuw nsw i64 %indvars.iv37, 1
  %.val = load ptr, ptr %48, align 8, !tbaa !31
  %54 = getelementptr i8, ptr %.val, i64 4
  %.val.val = load i32, ptr %54, align 4, !tbaa !25
  %55 = sext i32 %.val.val to i64
  %56 = icmp slt i64 %indvars.iv.next38, %55
  br i1 %56, label %.lr.ph35, label %.critedge, !llvm.loop !188

.critedge:                                        ; preds = %.lr.ph35, %._crit_edge
  %57 = getelementptr inbounds nuw i8, ptr %2, i64 256
  %58 = load ptr, ptr %57, align 8, !tbaa !41
  %59 = tail call ptr @Abc_SopRegister(ptr noundef %58, ptr noundef %0) #20
  %60 = getelementptr inbounds nuw i8, ptr %47, i64 56
  store ptr %59, ptr %60, align 8, !tbaa !49
  %61 = tail call ptr @Abc_NtkCreateObj(ptr noundef nonnull %2, i32 noundef 3) #20
  tail call void @Abc_ObjAddFanin(ptr noundef %61, ptr noundef %47) #20
  %62 = tail call ptr @Abc_ObjAssignName(ptr noundef %61, ptr noundef nonnull @.str.24, ptr noundef null) #20
  %63 = tail call i32 @Abc_NtkCheck(ptr noundef nonnull %2) #20
  %.not = icmp eq i32 %63, 0
  br i1 %.not, label %64, label %67

64:                                               ; preds = %.critedge
  %65 = load ptr, ptr @stdout, align 8, !tbaa !100
  %66 = tail call i64 @fwrite(ptr nonnull @.str.25, i64 51, i64 1, ptr %65)
  br label %67

67:                                               ; preds = %64, %.critedge
  ret ptr %2
}